target datalayout = "e-m:e-p270:32:32-p271:32:32-p272:64:64-i64:64-i128:128-f80:128-n8:16:32:64-S128"
target triple = "x86_64-pc-linux-gnu"

%struct.b2Vec2 = type { float, float }
%struct.b2Softness = type { float, float, float }
%struct.b2StepContext = type { float, float, float, float, i32, %struct.b2Softness, %struct.b2Softness, %struct.b2Softness, float, float, ptr, ptr, ptr, ptr, ptr, i32, ptr, %struct.b2AtomicInt, ptr, ptr, ptr, i32, i32, ptr, i32, i8, [64 x i8], %struct.b2AtomicU32, [64 x i8] }
%struct.b2AtomicInt = type { i32 }
%struct.b2AtomicU32 = type { i32 }
%struct.b2ConstraintGraph = type { [12 x %struct.b2GraphColor] }
%struct.b2GraphColor = type { %struct.b2BitSet, %struct.b2ContactSimArray, %struct.b2JointSimArray, %union.anon }
%struct.b2BitSet = type { ptr, i32, i32 }
%struct.b2ContactSimArray = type { ptr, i32, i32 }
%struct.b2JointSimArray = type { ptr, i32, i32 }
%union.anon = type { ptr }
%struct.b2ContactSim = type { i32, i32, i32, i32, i32, float, float, float, float, %struct.b2Manifold, float, float, float, float, i32, %struct.b2SimplexCache }
%struct.b2Manifold = type { %struct.b2Vec2, float, [2 x %struct.b2ManifoldPoint], i32 }
%struct.b2ManifoldPoint = type { %struct.b2Vec2, %struct.b2Vec2, %struct.b2Vec2, float, float, float, float, float, i16, i8 }
%struct.b2SimplexCache = type { i16, [3 x i8], [3 x i8] }
%struct.b2ContactConstraint = type { i32, i32, [2 x %struct.b2ContactConstraintPoint], %struct.b2Vec2, float, float, float, float, float, float, float, float, float, float, %struct.b2Softness, i32 }
%struct.b2ContactConstraintPoint = type { %struct.b2Vec2, %struct.b2Vec2, float, float, float, float, float, float, float }

; Function Attrs: nounwind uwtable
define hidden void @b2StoreOverflowImpulses(ptr noundef %0) #6 {
  %2 = alloca ptr, align 8
  %3 = alloca ptr, align 8
  %4 = alloca ptr, align 8
  %5 = alloca ptr, align 8
  %6 = alloca ptr, align 8
  %7 = alloca i32, align 4
  %8 = alloca i32, align 4
  %9 = alloca i32, align 4
  %10 = alloca ptr, align 8
  %11 = alloca ptr, align 8
  %12 = alloca ptr, align 8
  %13 = alloca i32, align 4
  %14 = alloca i32, align 4
  store ptr %0, ptr %2, align 8, !tbaa !3
  call void @llvm.lifetime.start.p0(i64 8, ptr %3) #11
  %15 = load ptr, ptr %2, align 8, !tbaa !3
  %16 = getelementptr inbounds nuw %struct.b2StepContext, ptr %15, i32 0, i32 11
  %17 = load ptr, ptr %16, align 8, !tbaa !26
  store ptr %17, ptr %3, align 8, !tbaa !27
  call void @llvm.lifetime.start.p0(i64 8, ptr %4) #11
  %18 = load ptr, ptr %3, align 8, !tbaa !27
  %19 = getelementptr inbounds nuw %struct.b2ConstraintGraph, ptr %18, i32 0, i32 0
  %20 = getelementptr inbounds [12 x %struct.b2GraphColor], ptr %19, i64 0, i64 0
  %21 = getelementptr inbounds %struct.b2GraphColor, ptr %20, i64 11
  store ptr %21, ptr %4, align 8, !tbaa !28
  call void @llvm.lifetime.start.p0(i64 8, ptr %5) #11
  %22 = load ptr, ptr %4, align 8, !tbaa !28
  %23 = getelementptr inbounds nuw %struct.b2GraphColor, ptr %22, i32 0, i32 3
  %24 = load ptr, ptr %23, align 8, !tbaa !30
  store ptr %24, ptr %5, align 8, !tbaa !31
  call void @llvm.lifetime.start.p0(i64 8, ptr %6) #11
  %25 = load ptr, ptr %4, align 8, !tbaa !28
  %26 = getelementptr inbounds nuw %struct.b2GraphColor, ptr %25, i32 0, i32 1
  %27 = getelementptr inbounds nuw %struct.b2ContactSimArray, ptr %26, i32 0, i32 0
  %28 = load ptr, ptr %27, align 8, !tbaa !42
  store ptr %28, ptr %6, align 8, !tbaa !43
  call void @llvm.lifetime.start.p0(i64 4, ptr %7) #11
  %29 = load ptr, ptr %4, align 8, !tbaa !28
  %30 = getelementptr inbounds nuw %struct.b2GraphColor, ptr %29, i32 0, i32 1
  %31 = getelementptr inbounds nuw %struct.b2ContactSimArray, ptr %30, i32 0, i32 1
  %32 = load i32, ptr %31, align 8, !tbaa !33
  store i32 %32, ptr %7, align 4, !tbaa !41
  call void @llvm.lifetime.start.p0(i64 4, ptr %8) #11
  store i32 0, ptr %8, align 4, !tbaa !41
  br label %33

33:                                               ; preds = %119, %1
  %34 = load i32, ptr %8, align 4, !tbaa !41
  %35 = load i32, ptr %7, align 4, !tbaa !41
  %36 = icmp slt i32 %34, %35
  br i1 %36, label %38, label %37

37:                                               ; preds = %33
  store i32 2, ptr %9, align 4
  call void @llvm.lifetime.end.p0(i64 4, ptr %8) #11
  br label %122

38:                                               ; preds = %33
  call void @llvm.lifetime.start.p0(i64 8, ptr %10) #11
  %39 = load ptr, ptr %5, align 8, !tbaa !31
  %40 = load i32, ptr %8, align 4, !tbaa !41
  %41 = sext i32 %40 to i64
  %42 = getelementptr inbounds %struct.b2ContactConstraint, ptr %39, i64 %41
  store ptr %42, ptr %10, align 8, !tbaa !31
  call void @llvm.lifetime.start.p0(i64 8, ptr %11) #11
  %43 = load ptr, ptr %6, align 8, !tbaa !43
  %44 = load i32, ptr %8, align 4, !tbaa !41
  %45 = sext i32 %44 to i64
  %46 = getelementptr inbounds %struct.b2ContactSim, ptr %43, i64 %45
  store ptr %46, ptr %11, align 8, !tbaa !43
  call void @llvm.lifetime.start.p0(i64 8, ptr %12) #11
  %47 = load ptr, ptr %11, align 8, !tbaa !43
  %48 = getelementptr inbounds nuw %struct.b2ContactSim, ptr %47, i32 0, i32 9
  store ptr %48, ptr %12, align 8, !tbaa !96
  call void @llvm.lifetime.start.p0(i64 4, ptr %13) #11
  %49 = load ptr, ptr %12, align 8, !tbaa !96
  %50 = getelementptr inbounds nuw %struct.b2Manifold, ptr %49, i32 0, i32 3
  %51 = load i32, ptr %50, align 4, !tbaa !98
  store i32 %51, ptr %13, align 4, !tbaa !41
  call void @llvm.lifetime.start.p0(i64 4, ptr %14) #11
  store i32 0, ptr %14, align 4, !tbaa !41
  br label %52

52:                                               ; preds = %110, %38
  %53 = load i32, ptr %14, align 4, !tbaa !41
  %54 = load i32, ptr %13, align 4, !tbaa !41
  %55 = icmp slt i32 %53, %54
  br i1 %55, label %57, label %56

56:                                               ; preds = %52
  store i32 5, ptr %9, align 4
  call void @llvm.lifetime.end.p0(i64 4, ptr %14) #11
  br label %113

57:                                               ; preds = %52
  %58 = load ptr, ptr %10, align 8, !tbaa !31
  %59 = getelementptr inbounds nuw %struct.b2ContactConstraint, ptr %58, i32 0, i32 2
  %60 = load i32, ptr %14, align 4, !tbaa !41
  %61 = sext i32 %60 to i64
  %62 = getelementptr inbounds [2 x %struct.b2ContactConstraintPoint], ptr %59, i64 0, i64 %61
  %63 = getelementptr inbounds nuw %struct.b2ContactConstraintPoint, ptr %62, i32 0, i32 4
  %64 = load float, ptr %63, align 4, !tbaa !137
  %65 = load ptr, ptr %12, align 8, !tbaa !96
  %66 = getelementptr inbounds nuw %struct.b2Manifold, ptr %65, i32 0, i32 2
  %67 = load i32, ptr %14, align 4, !tbaa !41
  %68 = sext i32 %67 to i64
  %69 = getelementptr inbounds [2 x %struct.b2ManifoldPoint], ptr %66, i64 0, i64 %68
  %70 = getelementptr inbounds nuw %struct.b2ManifoldPoint, ptr %69, i32 0, i32 4
  store float %64, ptr %70, align 4, !tbaa !135
  %71 = load ptr, ptr %10, align 8, !tbaa !31
  %72 = getelementptr inbounds nuw %struct.b2ContactConstraint, ptr %71, i32 0, i32 2
  %73 = load i32, ptr %14, align 4, !tbaa !41
  %74 = sext i32 %73 to i64
  %75 = getelementptr inbounds [2 x %struct.b2ContactConstraintPoint], ptr %72, i64 0, i64 %74
  %76 = getelementptr inbounds nuw %struct.b2ContactConstraintPoint, ptr %75, i32 0, i32 5
  %77 = load float, ptr %76, align 4, !tbaa !140
  %78 = load ptr, ptr %12, align 8, !tbaa !96
  %79 = getelementptr inbounds nuw %struct.b2Manifold, ptr %78, i32 0, i32 2
  %80 = load i32, ptr %14, align 4, !tbaa !41
  %81 = sext i32 %80 to i64
  %82 = getelementptr inbounds [2 x %struct.b2ManifoldPoint], ptr %79, i64 0, i64 %81
  %83 = getelementptr inbounds nuw %struct.b2ManifoldPoint, ptr %82, i32 0, i32 5
  store float %77, ptr %83, align 4, !tbaa !139
  %84 = load ptr, ptr %10, align 8, !tbaa !31
  %85 = getelementptr inbounds nuw %struct.b2ContactConstraint, ptr %84, i32 0, i32 2
  %86 = load i32, ptr %14, align 4, !tbaa !41
  %87 = sext i32 %86 to i64
  %88 = getelementptr inbounds [2 x %struct.b2ContactConstraintPoint], ptr %85, i64 0, i64 %87
  %89 = getelementptr inbounds nuw %struct.b2ContactConstraintPoint, ptr %88, i32 0, i32 6
  %90 = load float, ptr %89, align 4, !tbaa !141
  %91 = load ptr, ptr %12, align 8, !tbaa !96
  %92 = getelementptr inbounds nuw %struct.b2Manifold, ptr %91, i32 0, i32 2
  %93 = load i32, ptr %14, align 4, !tbaa !41
  %94 = sext i32 %93 to i64
  %95 = getelementptr inbounds [2 x %struct.b2ManifoldPoint], ptr %92, i64 0, i64 %94
  %96 = getelementptr inbounds nuw %struct.b2ManifoldPoint, ptr %95, i32 0, i32 6
  store float %90, ptr %96, align 4, !tbaa !177
  %97 = load ptr, ptr %10, align 8, !tbaa !31
  %98 = getelementptr inbounds nuw %struct.b2ContactConstraint, ptr %97, i32 0, i32 2
  %99 = load i32, ptr %14, align 4, !tbaa !41
  %100 = sext i32 %99 to i64
  %101 = getelementptr inbounds [2 x %struct.b2ContactConstraintPoint], ptr %98, i64 0, i64 %100
  %102 = getelementptr inbounds nuw %struct.b2ContactConstraintPoint, ptr %101, i32 0, i32 3
  %103 = load float, ptr %102, align 4, !tbaa !146
  %104 = load ptr, ptr %12, align 8, !tbaa !96
  %105 = getelementptr inbounds nuw %struct.b2Manifold, ptr %104, i32 0, i32 2
  %106 = load i32, ptr %14, align 4, !tbaa !41
  %107 = sext i32 %106 to i64
  %108 = getelementptr inbounds [2 x %struct.b2ManifoldPoint], ptr %105, i64 0, i64 %107
  %109 = getelementptr inbounds nuw %struct.b2ManifoldPoint, ptr %108, i32 0, i32 7
  store float %103, ptr %109, align 4, !tbaa !178
  br label %110

110:                                              ; preds = %57
  %111 = load i32, ptr %14, align 4, !tbaa !41
  %112 = add nsw i32 %111, 1
  store i32 %112, ptr %14, align 4, !tbaa !41
  br label %52, !llvm.loop !179

113:                                              ; preds = %56
  %114 = load ptr, ptr %10, align 8, !tbaa !31
  %115 = getelementptr inbounds nuw %struct.b2ContactConstraint, ptr %114, i32 0, i32 13
  %116 = load float, ptr %115, align 4, !tbaa !115
  %117 = load ptr, ptr %12, align 8, !tbaa !96
  %118 = getelementptr inbounds nuw %struct.b2Manifold, ptr %117, i32 0, i32 1
  store float %116, ptr %118, align 4, !tbaa !114
  call void @llvm.lifetime.end.p0(i64 4, ptr %13) #11
  call void @llvm.lifetime.end.p0(i64 8, ptr %12) #11
  call void @llvm.lifetime.end.p0(i64 8, ptr %11) #11
  call void @llvm.lifetime.end.p0(i64 8, ptr %10) #11
  br label %119

119:                                              ; preds = %113
  %120 = load i32, ptr %8, align 4, !tbaa !41
  %121 = add nsw i32 %120, 1
  store i32 %121, ptr %8, align 4, !tbaa !41
  br label %33, !llvm.loop !180

122:                                              ; preds = %37
  call void @llvm.lifetime.end.p0(i64 4, ptr %7) #11
  call void @llvm.lifetime.end.p0(i64 8, ptr %6) #11
  call void @llvm.lifetime.end.p0(i64 8, ptr %5) #11
  call void @llvm.lifetime.end.p0(i64 8, ptr %4) #11
  call void @llvm.lifetime.end.p0(i64 8, ptr %3) #11
  ret void
}