; Function Attrs: nofree norecurse nosync nounwind memory(readwrite, inaccessiblemem: none) uwtable
define hidden void @b2StoreOverflowImpulses(ptr noundef readonly captures(none) %0) local_unnamed_addr #3 {
  %2 = getelementptr inbounds nuw i8, ptr %0, i64 72
  %3 = load ptr, ptr %2, align 8, !tbaa !23
  %4 = getelementptr inbounds nuw i8, ptr %3, i64 664
  %5 = load ptr, ptr %4, align 8, !tbaa !24
  %6 = getelementptr inbounds nuw i8, ptr %3, i64 632
  %7 = load ptr, ptr %6, align 8, !tbaa !33
  %8 = getelementptr inbounds nuw i8, ptr %3, i64 640
  %9 = load i32, ptr %8, align 8, !tbaa !25
  %10 = icmp sgt i32 %9, 0
  br i1 %10, label %.lr.ph38.preheader, label %._crit_edge39

.lr.ph38.preheader:                               ; preds = %1
  %wide.trip.count44 = zext nneg i32 %9 to i64
  br label %.lr.ph38

._crit_edge39:                                    ; preds = %._crit_edge, %1
  ret void

.lr.ph38:                                         ; preds = %.lr.ph38.preheader, %._crit_edge
  %indvars.iv41 = phi i64 [ 0, %.lr.ph38.preheader ], [ %indvars.iv.next42, %._crit_edge ]
  %11 = getelementptr inbounds nuw %struct.b2ContactConstraint, ptr %5, i64 %indvars.iv41
  %12 = getelementptr inbounds nuw %struct.b2ContactSim, ptr %7, i64 %indvars.iv41, i32 9
  %13 = getelementptr inbounds nuw i8, ptr %12, i64 108
  %14 = load i32, ptr %13, align 4, !tbaa !85
  %15 = icmp sgt i32 %14, 0
  br i1 %15, label %.lr.ph, label %._crit_edge

.lr.ph:                                           ; preds = %.lr.ph38
  %16 = getelementptr inbounds nuw i8, ptr %11, i64 8
  %17 = getelementptr inbounds nuw i8, ptr %12, i64 12
  %wide.trip.count = zext nneg i32 %14 to i64
  br label %21

._crit_edge:                                      ; preds = %21, %.lr.ph38
  %18 = getelementptr inbounds nuw i8, ptr %11, i64 140
  %19 = load float, ptr %18, align 4, !tbaa !101
  %20 = getelementptr inbounds nuw i8, ptr %12, i64 8
  store float %19, ptr %20, align 4, !tbaa !100
  %indvars.iv.next42 = add nuw nsw i64 %indvars.iv41, 1
  %exitcond45.not = icmp eq i64 %indvars.iv.next42, %wide.trip.count44
  br i1 %exitcond45.not, label %._crit_edge39, label %.lr.ph38, !llvm.loop !149

21:                                               ; preds = %.lr.ph, %21
  %indvars.iv = phi i64 [ 0, %.lr.ph ], [ %indvars.iv.next, %21 ]
  %22 = getelementptr inbounds nuw [2 x %struct.b2ContactConstraintPoint], ptr %16, i64 0, i64 %indvars.iv
  %23 = getelementptr inbounds nuw i8, ptr %22, i64 24
  %24 = load float, ptr %23, align 4, !tbaa !121
  %25 = getelementptr inbounds nuw [2 x %struct.b2ManifoldPoint], ptr %17, i64 0, i64 %indvars.iv
  %26 = getelementptr inbounds nuw i8, ptr %25, i64 28
  store float %24, ptr %26, align 4, !tbaa !119
  %27 = getelementptr inbounds nuw i8, ptr %22, i64 28
  %28 = load float, ptr %27, align 4, !tbaa !124
  %29 = getelementptr inbounds nuw i8, ptr %25, i64 32
  store float %28, ptr %29, align 4, !tbaa !123
  %30 = getelementptr inbounds nuw i8, ptr %22, i64 32
  %31 = load float, ptr %30, align 4, !tbaa !125
  %32 = getelementptr inbounds nuw i8, ptr %25, i64 36
  store float %31, ptr %32, align 4, !tbaa !150
  %33 = getelementptr inbounds nuw i8, ptr %22, i64 20
  %34 = load float, ptr %33, align 4, !tbaa !130
  %35 = getelementptr inbounds nuw i8, ptr %25, i64 40
  store float %34, ptr %35, align 4, !tbaa !151
  %indvars.iv.next = add nuw nsw i64 %indvars.iv, 1
  %exitcond.not = icmp eq i64 %indvars.iv.next, %wide.trip.count
  br i1 %exitcond.not, label %._crit_edge, label %21, !llvm.loop !152
}